; Function Attrs: mustprogress uwtable
define internal noalias noundef nonnull ptr @_ZN7testing8internal15TestMetaFactoryIN12_GLOBAL__N_138NonTemporalMemcpyTest_SSEEquality_TestEE17CreateTestFactoryENS2_9TestParamE(ptr nocapture nonnull readnone align 8 %this, i64 %parameter.coerce0, i64 %parameter.coerce1) unnamed_addr #3 align 2 personality ptr @__gxx_personality_v0 {
invoke.cont:
  %call = tail call noalias noundef nonnull dereferenceable(24) ptr @_Znwm(i64 noundef 24) #29
  store ptr getelementptr inbounds ({ [5 x ptr] }, ptr @_ZTVN7testing8internal24ParameterizedTestFactoryIN12_GLOBAL__N_138NonTemporalMemcpyTest_SSEEquality_TestEEE, i64 0, i32 0, i64 2), ptr %call, align 8
  %parameter_.i = getelementptr inbounds i8, ptr %call, i64 8
  store i64 %parameter.coerce0, ptr %parameter_.i, align 8
  %parameter.sroa.2.0.parameter_.sroa_idx.i = getelementptr inbounds i8, ptr %call, i64 16
  store i64 %parameter.coerce1, ptr %parameter.sroa.2.0.parameter_.sroa_idx.i, align 8
  ret ptr %call
}